target datalayout = "e-m:e-p270:32:32-p271:32:32-p272:64:64-i64:64-i128:128-f80:128-n8:16:32:64-S128"
target triple = "x86_64-pc-linux-gnu"

%struct.luaL_Buffer = type { ptr, i32, ptr, [8192 x i8] }

; Function Attrs: nounwind uwtable
define internal void @adjuststack(ptr noundef %0) #0 {
  %2 = alloca ptr, align 8
  %3 = alloca ptr, align 8
  %4 = alloca i32, align 4
  %5 = alloca i64, align 8
  %6 = alloca i64, align 8
  %7 = alloca i32, align 4
  store ptr %0, ptr %2, align 8, !tbaa !39
  %8 = load ptr, ptr %2, align 8, !tbaa !39
  %9 = getelementptr inbounds nuw %struct.luaL_Buffer, ptr %8, i32 0, i32 1
  %10 = load i32, ptr %9, align 8, !tbaa !44
  %11 = icmp sgt i32 %10, 1
  br i1 %11, label %12, label %63

12:                                               ; preds = %1
  call void @llvm.lifetime.start.p0(i64 8, ptr %3) #9
  %13 = load ptr, ptr %2, align 8, !tbaa !39
  %14 = getelementptr inbounds nuw %struct.luaL_Buffer, ptr %13, i32 0, i32 2
  %15 = load ptr, ptr %14, align 8, !tbaa !41
  store ptr %15, ptr %3, align 8, !tbaa !4
  call void @llvm.lifetime.start.p0(i64 4, ptr %4) #9
  store i32 1, ptr %4, align 4, !tbaa !9
  call void @llvm.lifetime.start.p0(i64 8, ptr %5) #9
  %16 = load ptr, ptr %3, align 8, !tbaa !4
  %17 = call i64 @lua_objlen(ptr noundef %16, i32 noundef -1)
  store i64 %17, ptr %5, align 8, !tbaa !23
  br label %18

18:                                               ; preds = %46, %12
  call void @llvm.lifetime.start.p0(i64 8, ptr %6) #9
  %19 = load ptr, ptr %3, align 8, !tbaa !4
  %20 = load i32, ptr %4, align 4, !tbaa !9
  %21 = add nsw i32 %20, 1
  %22 = sub nsw i32 0, %21
  %23 = call i64 @lua_objlen(ptr noundef %19, i32 noundef %22)
  store i64 %23, ptr %6, align 8, !tbaa !23
  %24 = load ptr, ptr %2, align 8, !tbaa !39
  %25 = getelementptr inbounds nuw %struct.luaL_Buffer, ptr %24, i32 0, i32 1
  %26 = load i32, ptr %25, align 8, !tbaa !44
  %27 = load i32, ptr %4, align 4, !tbaa !9
  %28 = sub nsw i32 %26, %27
  %29 = add nsw i32 %28, 1
  %30 = icmp sge i32 %29, 10
  br i1 %30, label %35, label %31

31:                                               ; preds = %18
  %32 = load i64, ptr %5, align 8, !tbaa !23
  %33 = load i64, ptr %6, align 8, !tbaa !23
  %34 = icmp ugt i64 %32, %33
  br i1 %34, label %35, label %41

35:                                               ; preds = %31, %18
  %36 = load i64, ptr %6, align 8, !tbaa !23
  %37 = load i64, ptr %5, align 8, !tbaa !23
  %38 = add i64 %37, %36
  store i64 %38, ptr %5, align 8, !tbaa !23
  %39 = load i32, ptr %4, align 4, !tbaa !9
  %40 = add nsw i32 %39, 1
  store i32 %40, ptr %4, align 4, !tbaa !9
  br label %42

41:                                               ; preds = %31
  store i32 2, ptr %7, align 4
  br label %43

42:                                               ; preds = %35
  store i32 0, ptr %7, align 4
  br label %43

43:                                               ; preds = %42, %41
  call void @llvm.lifetime.end.p0(i64 8, ptr %6) #9
  %44 = load i32, ptr %7, align 4
  switch i32 %44, label %64 [
    i32 0, label %45
    i32 2, label %52
  ]

45:                                               ; preds = %43
  br label %46

46:                                               ; preds = %45
  %47 = load i32, ptr %4, align 4, !tbaa !9
  %48 = load ptr, ptr %2, align 8, !tbaa !39
  %49 = getelementptr inbounds nuw %struct.luaL_Buffer, ptr %48, i32 0, i32 1
  %50 = load i32, ptr %49, align 8, !tbaa !44
  %51 = icmp slt i32 %47, %50
  br i1 %51, label %18, label %52, !llvm.loop !46

52:                                               ; preds = %46, %43
  %53 = load ptr, ptr %3, align 8, !tbaa !4
  %54 = load i32, ptr %4, align 4, !tbaa !9
  call void @lua_concat(ptr noundef %53, i32 noundef %54)
  %55 = load ptr, ptr %2, align 8, !tbaa !39
  %56 = getelementptr inbounds nuw %struct.luaL_Buffer, ptr %55, i32 0, i32 1
  %57 = load i32, ptr %56, align 8, !tbaa !44
  %58 = load i32, ptr %4, align 4, !tbaa !9
  %59 = sub nsw i32 %57, %58
  %60 = add nsw i32 %59, 1
  %61 = load ptr, ptr %2, align 8, !tbaa !39
  %62 = getelementptr inbounds nuw %struct.luaL_Buffer, ptr %61, i32 0, i32 1
  store i32 %60, ptr %62, align 8, !tbaa !44
  call void @llvm.lifetime.end.p0(i64 8, ptr %5) #9
  call void @llvm.lifetime.end.p0(i64 4, ptr %4) #9
  call void @llvm.lifetime.end.p0(i64 8, ptr %3) #9
  br label %63

63:                                               ; preds = %52, %1
  ret void

64:                                               ; preds = %43
  unreachable
}

; Function Attrs: nounwind uwtable
define internal i32 @emptybuffer(ptr noundef %0) #0 {
  %2 = alloca i32, align 4
  %3 = alloca ptr, align 8
  %4 = alloca i64, align 8
  %5 = alloca i32, align 4
  store ptr %0, ptr %3, align 8, !tbaa !39
  call void @llvm.lifetime.start.p0(i64 8, ptr %4) #9
  %6 = load ptr, ptr %3, align 8, !tbaa !39
  %7 = getelementptr inbounds nuw %struct.luaL_Buffer, ptr %6, i32 0, i32 0
  %8 = load ptr, ptr %7, align 8, !tbaa !43
  %9 = load ptr, ptr %3, align 8, !tbaa !39
  %10 = getelementptr inbounds nuw %struct.luaL_Buffer, ptr %9, i32 0, i32 3
  %11 = getelementptr inbounds [8192 x i8], ptr %10, i64 0, i64 0
  %12 = ptrtoint ptr %8 to i64
  %13 = ptrtoint ptr %11 to i64
  %14 = sub i64 %12, %13
  store i64 %14, ptr %4, align 8, !tbaa !23
  %15 = load i64, ptr %4, align 8, !tbaa !23
  %16 = icmp eq i64 %15, 0
  br i1 %16, label %17, label %18

17:                                               ; preds = %1
  store i32 0, ptr %2, align 4
  store i32 1, ptr %5, align 4
  br label %35

18:                                               ; preds = %1
  %19 = load ptr, ptr %3, align 8, !tbaa !39
  %20 = getelementptr inbounds nuw %struct.luaL_Buffer, ptr %19, i32 0, i32 2
  %21 = load ptr, ptr %20, align 8, !tbaa !41
  %22 = load ptr, ptr %3, align 8, !tbaa !39
  %23 = getelementptr inbounds nuw %struct.luaL_Buffer, ptr %22, i32 0, i32 3
  %24 = getelementptr inbounds [8192 x i8], ptr %23, i64 0, i64 0
  %25 = load i64, ptr %4, align 8, !tbaa !23
  call void @lua_pushlstring(ptr noundef %21, ptr noundef %24, i64 noundef %25)
  %26 = load ptr, ptr %3, align 8, !tbaa !39
  %27 = getelementptr inbounds nuw %struct.luaL_Buffer, ptr %26, i32 0, i32 3
  %28 = getelementptr inbounds [8192 x i8], ptr %27, i64 0, i64 0
  %29 = load ptr, ptr %3, align 8, !tbaa !39
  %30 = getelementptr inbounds nuw %struct.luaL_Buffer, ptr %29, i32 0, i32 0
  store ptr %28, ptr %30, align 8, !tbaa !43
  %31 = load ptr, ptr %3, align 8, !tbaa !39
  %32 = getelementptr inbounds nuw %struct.luaL_Buffer, ptr %31, i32 0, i32 1
  %33 = load i32, ptr %32, align 8, !tbaa !44
  %34 = add nsw i32 %33, 1
  store i32 %34, ptr %32, align 8, !tbaa !44
  store i32 1, ptr %2, align 4
  store i32 1, ptr %5, align 4
  br label %35

35:                                               ; preds = %18, %17
  call void @llvm.lifetime.end.p0(i64 8, ptr %4) #9
  %36 = load i32, ptr %2, align 4
  ret i32 %36
}

; Function Attrs: nounwind uwtable
define dso_local ptr @luaL_prepbuffer(ptr noundef %0) #0 {
  %2 = alloca ptr, align 8
  store ptr %0, ptr %2, align 8, !tbaa !39
  %3 = load ptr, ptr %2, align 8, !tbaa !39
  %4 = call i32 @emptybuffer(ptr noundef %3)
  %5 = icmp ne i32 %4, 0
  br i1 %5, label %6, label %8

6:                                                ; preds = %1
  %7 = load ptr, ptr %2, align 8, !tbaa !39
  call void @adjuststack(ptr noundef %7)
  br label %8

8:                                                ; preds = %6, %1
  %9 = load ptr, ptr %2, align 8, !tbaa !39
  %10 = getelementptr inbounds nuw %struct.luaL_Buffer, ptr %9, i32 0, i32 3
  %11 = getelementptr inbounds [8192 x i8], ptr %10, i64 0, i64 0
  ret ptr %11
}