; Function Attrs: nounwind uwtable
define dso_local nonnull ptr @luaL_prepbuffer(ptr noundef %0) local_unnamed_addr #0 {
  %2 = load ptr, ptr %0, align 8, !tbaa !29
  %3 = getelementptr inbounds nuw i8, ptr %0, i64 24
  %4 = icmp eq ptr %2, %3
  br i1 %4, label %adjuststack.exit, label %5

5:                                                ; preds = %1
  %6 = ptrtoint ptr %3 to i64
  %7 = ptrtoint ptr %2 to i64
  %8 = sub i64 %7, %6
  %9 = getelementptr inbounds nuw i8, ptr %0, i64 16
  %10 = load ptr, ptr %9, align 8, !tbaa !26
  tail call void @lua_pushlstring(ptr noundef %10, ptr noundef nonnull %3, i64 noundef %8) #17
  store ptr %3, ptr %0, align 8, !tbaa !29
  %11 = getelementptr inbounds nuw i8, ptr %0, i64 8
  %12 = load i32, ptr %11, align 8, !tbaa !30
  %13 = add nsw i32 %12, 1
  store i32 %13, ptr %11, align 8, !tbaa !30
  %14 = icmp sgt i32 %12, 0
  br i1 %14, label %15, label %adjuststack.exit

15:                                               ; preds = %5
  %16 = load ptr, ptr %9, align 8, !tbaa !26
  %17 = tail call i64 @lua_objlen(ptr noundef %16, i32 noundef -1) #17
  br label %18

18:                                               ; preds = %18, %15
  %.020.i = phi i64 [ %17, %15 ], [ %26, %18 ]
  %.019.i = phi i32 [ 1, %15 ], [ %19, %18 ]
  %19 = add nuw nsw i32 %.019.i, 1
  %20 = xor i32 %.019.i, -1
  %21 = tail call i64 @lua_objlen(ptr noundef %16, i32 noundef %20) #17
  %22 = load i32, ptr %11, align 8, !tbaa !30
  %23 = sub nsw i32 %22, %.019.i
  %24 = icmp sgt i32 %23, 8
  %25 = icmp ugt i64 %.020.i, %21
  %or.cond.i = select i1 %24, i1 true, i1 %25
  %26 = add i64 %21, %.020.i
  %27 = icmp slt i32 %19, %22
  %or.cond22.i = select i1 %or.cond.i, i1 %27, i1 false
  br i1 %or.cond22.i, label %18, label %28, !llvm.loop !31

28:                                               ; preds = %18
  %.1.i = select i1 %or.cond.i, i32 %19, i32 %.019.i
  tail call void @lua_concat(ptr noundef %16, i32 noundef %.1.i) #17
  %29 = load i32, ptr %11, align 8, !tbaa !30
  %reass.sub = sub i32 %29, %.1.i
  %30 = add i32 %reass.sub, 1
  store i32 %30, ptr %11, align 8, !tbaa !30
  br label %adjuststack.exit

adjuststack.exit:                                 ; preds = %1, %28, %5
  ret ptr %3
}